target datalayout = "e-m:e-p270:32:32-p271:32:32-p272:64:64-i64:64-i128:128-f80:128-n8:16:32:64-S128"
target triple = "x86_64-pc-linux-gnu"

%struct.strvec = type { ptr, i64, i64 }
%struct.credential_capability = type { i8, [3 x i8] }
%struct.credential = type { %struct.string_list, %struct.strvec, %struct.strvec, %struct.strvec, i16, [2 x i8], %struct.credential_capability, %struct.credential_capability, ptr, ptr, ptr, ptr, ptr, ptr, ptr, i64, ptr }
%struct.string_list = type { ptr, i64, i64, i8, ptr }
%struct.string_list_item = type { ptr, ptr }

@.str.25 = private unnamed_addr constant [6 x i8] c"erase\00", align 1

; Function Attrs: nounwind uwtable
define dso_local void @credential_clear_secrets(ptr noundef %0) #0 {
  %2 = alloca ptr, align 8
  store ptr %0, ptr %2, align 8, !tbaa !4
  br label %3

3:                                                ; preds = %1
  %4 = load ptr, ptr %2, align 8, !tbaa !4
  %5 = getelementptr inbounds nuw %struct.credential, ptr %4, i32 0, i32 9
  %6 = load ptr, ptr %5, align 8, !tbaa !24
  call void @free(ptr noundef %6) #10
  %7 = load ptr, ptr %2, align 8, !tbaa !4
  %8 = getelementptr inbounds nuw %struct.credential, ptr %7, i32 0, i32 9
  store ptr null, ptr %8, align 8, !tbaa !24
  br label %9

9:                                                ; preds = %3
  br label %10

10:                                               ; preds = %9
  %11 = load ptr, ptr %2, align 8, !tbaa !4
  %12 = getelementptr inbounds nuw %struct.credential, ptr %11, i32 0, i32 10
  %13 = load ptr, ptr %12, align 8, !tbaa !25
  call void @free(ptr noundef %13) #10
  %14 = load ptr, ptr %2, align 8, !tbaa !4
  %15 = getelementptr inbounds nuw %struct.credential, ptr %14, i32 0, i32 10
  store ptr null, ptr %15, align 8, !tbaa !25
  br label %16

16:                                               ; preds = %10
  ret void
}

; Function Attrs: nounwind uwtable
define dso_local void @credential_next_state(ptr noundef %0) #0 {
  %2 = alloca ptr, align 8
  %3 = alloca ptr, align 8
  %4 = alloca ptr, align 8
  %5 = alloca [24 x i8], align 16
  store ptr %0, ptr %2, align 8, !tbaa !4
  %6 = load ptr, ptr %2, align 8, !tbaa !4
  %7 = getelementptr inbounds nuw %struct.credential, ptr %6, i32 0, i32 3
  call void @strvec_clear(ptr noundef %7)
  br label %8

8:                                                ; preds = %1
  call void @llvm.lifetime.start.p0(i64 8, ptr %3) #10
  %9 = load ptr, ptr %2, align 8, !tbaa !4
  %10 = getelementptr inbounds nuw %struct.credential, ptr %9, i32 0, i32 2
  store ptr %10, ptr %3, align 8, !tbaa !26
  call void @llvm.lifetime.start.p0(i64 8, ptr %4) #10
  %11 = load ptr, ptr %2, align 8, !tbaa !4
  %12 = getelementptr inbounds nuw %struct.credential, ptr %11, i32 0, i32 3
  store ptr %12, ptr %4, align 8, !tbaa !26
  call void @llvm.lifetime.start.p0(i64 24, ptr %5) #10
  %13 = getelementptr inbounds [24 x i8], ptr %5, i64 0, i64 0
  %14 = load ptr, ptr %3, align 8, !tbaa !26
  call void @llvm.memcpy.p0.p0.i64(ptr align 16 %13, ptr align 1 %14, i64 24, i1 false)
  %15 = load ptr, ptr %3, align 8, !tbaa !26
  %16 = load ptr, ptr %4, align 8, !tbaa !26
  call void @llvm.memcpy.p0.p0.i64(ptr align 1 %15, ptr align 1 %16, i64 24, i1 false)
  %17 = load ptr, ptr %4, align 8, !tbaa !26
  %18 = getelementptr inbounds [24 x i8], ptr %5, i64 0, i64 0
  call void @llvm.memcpy.p0.p0.i64(ptr align 1 %17, ptr align 16 %18, i64 24, i1 false)
  call void @llvm.lifetime.end.p0(i64 24, ptr %5) #10
  call void @llvm.lifetime.end.p0(i64 8, ptr %4) #10
  call void @llvm.lifetime.end.p0(i64 8, ptr %3) #10
  br label %19

19:                                               ; preds = %8
  ret void
}

; Function Attrs: nounwind uwtable
define dso_local void @credential_reject(ptr noundef %0, ptr noundef %1) #0 {
  %3 = alloca ptr, align 8
  %4 = alloca ptr, align 8
  %5 = alloca i32, align 4
  store ptr %0, ptr %3, align 8, !tbaa !47
  store ptr %1, ptr %4, align 8, !tbaa !4
  call void @llvm.lifetime.start.p0(i64 4, ptr %5) #10
  %6 = load ptr, ptr %4, align 8, !tbaa !4
  call void @credential_next_state(ptr noundef %6)
  %7 = load ptr, ptr %3, align 8, !tbaa !47
  %8 = load ptr, ptr %4, align 8, !tbaa !4
  call void @credential_apply_config(ptr noundef %7, ptr noundef %8)
  store i32 0, ptr %5, align 4, !tbaa !27
  br label %9

9:                                                ; preds = %29, %2
  %10 = load i32, ptr %5, align 4, !tbaa !27
  %11 = sext i32 %10 to i64
  %12 = load ptr, ptr %4, align 8, !tbaa !4
  %13 = getelementptr inbounds nuw %struct.credential, ptr %12, i32 0, i32 0
  %14 = getelementptr inbounds nuw %struct.string_list, ptr %13, i32 0, i32 1
  %15 = load i64, ptr %14, align 8, !tbaa !49
  %16 = icmp ult i64 %11, %15
  br i1 %16, label %17, label %32

17:                                               ; preds = %9
  %18 = load ptr, ptr %4, align 8, !tbaa !4
  %19 = load ptr, ptr %4, align 8, !tbaa !4
  %20 = getelementptr inbounds nuw %struct.credential, ptr %19, i32 0, i32 0
  %21 = getelementptr inbounds nuw %struct.string_list, ptr %20, i32 0, i32 0
  %22 = load ptr, ptr %21, align 8, !tbaa !50
  %23 = load i32, ptr %5, align 4, !tbaa !27
  %24 = sext i32 %23 to i64
  %25 = getelementptr inbounds %struct.string_list_item, ptr %22, i64 %24
  %26 = getelementptr inbounds nuw %struct.string_list_item, ptr %25, i32 0, i32 0
  %27 = load ptr, ptr %26, align 8, !tbaa !51
  %28 = call i32 @credential_do(ptr noundef %18, ptr noundef %27, ptr noundef @.str.25)
  br label %29

29:                                               ; preds = %17
  %30 = load i32, ptr %5, align 4, !tbaa !27
  %31 = add nsw i32 %30, 1
  store i32 %31, ptr %5, align 4, !tbaa !27
  br label %9, !llvm.loop !68

32:                                               ; preds = %9
  %33 = load ptr, ptr %4, align 8, !tbaa !4
  call void @credential_clear_secrets(ptr noundef %33)
  br label %34

34:                                               ; preds = %32
  %35 = load ptr, ptr %4, align 8, !tbaa !4
  %36 = getelementptr inbounds nuw %struct.credential, ptr %35, i32 0, i32 8
  %37 = load ptr, ptr %36, align 8, !tbaa !21
  call void @free(ptr noundef %37) #10
  %38 = load ptr, ptr %4, align 8, !tbaa !4
  %39 = getelementptr inbounds nuw %struct.credential, ptr %38, i32 0, i32 8
  store ptr null, ptr %39, align 8, !tbaa !21
  br label %40

40:                                               ; preds = %34
  br label %41

41:                                               ; preds = %40
  br label %42

42:                                               ; preds = %41
  %43 = load ptr, ptr %4, align 8, !tbaa !4
  %44 = getelementptr inbounds nuw %struct.credential, ptr %43, i32 0, i32 14
  %45 = load ptr, ptr %44, align 8, !tbaa !22
  call void @free(ptr noundef %45) #10
  %46 = load ptr, ptr %4, align 8, !tbaa !4
  %47 = getelementptr inbounds nuw %struct.credential, ptr %46, i32 0, i32 14
  store ptr null, ptr %47, align 8, !tbaa !22
  br label %48

48:                                               ; preds = %42
  br label %49

49:                                               ; preds = %48
  %50 = load ptr, ptr %4, align 8, !tbaa !4
  %51 = getelementptr inbounds nuw %struct.credential, ptr %50, i32 0, i32 15
  store i64 -1, ptr %51, align 8, !tbaa !37
  %52 = load ptr, ptr %4, align 8, !tbaa !4
  %53 = getelementptr inbounds nuw %struct.credential, ptr %52, i32 0, i32 4
  %54 = load i16, ptr %53, align 8
  %55 = and i16 %54, -3
  %56 = or i16 %55, 0
  store i16 %56, ptr %53, align 8
  call void @llvm.lifetime.end.p0(i64 4, ptr %5) #10
  ret void
}