; Function Attrs: nounwind uwtable
define dso_local void @credential_reject(ptr noundef %0, ptr noundef %1) local_unnamed_addr #3 {
  %3 = alloca [24 x i8], align 16
  %4 = getelementptr inbounds nuw i8, ptr %1, i64 88
  tail call void @strvec_clear(ptr noundef nonnull %4) #19
  %5 = getelementptr inbounds nuw i8, ptr %1, i64 64
  call void @llvm.lifetime.start.p0(i64 24, ptr nonnull %3)
  call void @llvm.memcpy.p0.p0.i64(ptr noundef nonnull align 16 dereferenceable(24) %3, ptr noundef nonnull align 1 dereferenceable(24) %5, i64 24, i1 false)
  tail call void @llvm.memcpy.p0.p0.i64(ptr noundef nonnull align 1 dereferenceable(24) %5, ptr noundef nonnull align 1 dereferenceable(24) %4, i64 24, i1 false)
  call void @llvm.memcpy.p0.p0.i64(ptr noundef nonnull align 1 dereferenceable(24) %4, ptr noundef nonnull align 16 dereferenceable(24) %3, i64 24, i1 false)
  call void @llvm.lifetime.end.p0(i64 24, ptr nonnull %3)
  tail call fastcc void @credential_apply_config(ptr noundef %0, ptr noundef %1)
  %6 = getelementptr inbounds nuw i8, ptr %1, i64 8
  %7 = load i64, ptr %6, align 8, !tbaa !38
  %.not = icmp eq i64 %7, 0
  br i1 %.not, label %._crit_edge, label %.lr.ph

.lr.ph:                                           ; preds = %2, %.lr.ph
  %indvars.iv = phi i64 [ %indvars.iv.next, %.lr.ph ], [ 0, %2 ]
  %8 = load ptr, ptr %1, align 8, !tbaa !40
  %9 = getelementptr inbounds nuw %struct.string_list_item, ptr %8, i64 %indvars.iv
  %10 = load ptr, ptr %9, align 8, !tbaa !41
  tail call fastcc void @credential_do(ptr noundef nonnull %1, ptr noundef %10, ptr noundef nonnull @.str.25)
  %indvars.iv.next = add nuw nsw i64 %indvars.iv, 1
  %11 = load i64, ptr %6, align 8, !tbaa !38
  %12 = icmp ugt i64 %11, %indvars.iv.next
  br i1 %12, label %.lr.ph, label %._crit_edge, !llvm.loop !58

._crit_edge:                                      ; preds = %.lr.ph, %2
  %13 = getelementptr inbounds nuw i8, ptr %1, i64 136
  %14 = load ptr, ptr %13, align 8, !tbaa !4
  tail call void @free(ptr noundef %14) #19
  store ptr null, ptr %13, align 8, !tbaa !4
  %15 = getelementptr inbounds nuw i8, ptr %1, i64 144
  %16 = load ptr, ptr %15, align 8, !tbaa !17
  tail call void @free(ptr noundef %16) #19
  store ptr null, ptr %15, align 8, !tbaa !17
  %17 = getelementptr inbounds nuw i8, ptr %1, i64 128
  %18 = load ptr, ptr %17, align 8, !tbaa !21
  tail call void @free(ptr noundef %18) #19
  store ptr null, ptr %17, align 8, !tbaa !21
  %19 = getelementptr inbounds nuw i8, ptr %1, i64 176
  %20 = load ptr, ptr %19, align 8, !tbaa !22
  tail call void @free(ptr noundef %20) #19
  store ptr null, ptr %19, align 8, !tbaa !22
  %21 = getelementptr inbounds nuw i8, ptr %1, i64 184
  store i64 -1, ptr %21, align 8, !tbaa !29
  %22 = getelementptr inbounds nuw i8, ptr %1, i64 112
  %23 = load i16, ptr %22, align 8
  %24 = and i16 %23, -3
  store i16 %24, ptr %22, align 8
  ret void
}